; ModuleID = '19/1396.c'
source_filename = "19/1396.c"
target datalayout = "e-m:e-p270:32:32-p271:32:32-p272:64:64-i64:64-f80:128-n8:16:32:64-S128"
target triple = "x86_64-pc-linux-gnu"

@.str = private unnamed_addr constant [4 x i8] c"%s \00", align 1
@.str.1 = private unnamed_addr constant [3 x i8] c"%s\00", align 1

; Function Attrs: noinline nounwind uwtable
define dso_local i32 @main() #0 {
  %1 = alloca i32, align 4
  %2 = alloca [50 x [20 x i8]], align 16
  %3 = alloca [100 x i8], align 16
  %4 = alloca [100 x i8], align 16
  %5 = alloca [100 x i8], align 16
  %6 = alloca [100 x i8], align 16
  %7 = alloca i32, align 4
  %8 = alloca i32, align 4
  %9 = alloca i32, align 4
  store i32 0, i32* %1, align 4
  store i32 0, i32* %7, align 4
  store i32 0, i32* %8, align 4
  store i32 0, i32* %9, align 4
  %10 = getelementptr inbounds [100 x i8], [100 x i8]* %3, i64 0, i64 0
  %11 = call i32 (i8*, ...) bitcast (i32 (...)* @gets to i32 (i8*, ...)*)(i8* %10)
  br label %12

12:                                               ; preds = %0, %74
  %13 = load i32, i32* %7, align 4
  %14 = sext i32 %13 to i64
  %15 = getelementptr inbounds [100 x i8], [100 x i8]* %3, i64 0, i64 %14
  %16 = load i8, i8* %15, align 1
  %17 = sext i8 %16 to i32
  %18 = icmp ne i32 %17, 32
  br i1 %18, label %19, label %36

19:                                               ; preds = %12
  %20 = load i32, i32* %7, align 4
  %21 = sext i32 %20 to i64
  %22 = getelementptr inbounds [100 x i8], [100 x i8]* %3, i64 0, i64 %21
  %23 = load i8, i8* %22, align 1
  %24 = sext i8 %23 to i32
  %25 = icmp ne i32 %24, 0
  br i1 %25, label %26, label %36

26:                                               ; preds = %19
  %27 = load i32, i32* %7, align 4
  %28 = sext i32 %27 to i64
  %29 = getelementptr inbounds [100 x i8], [100 x i8]* %3, i64 0, i64 %28
  %30 = load i8, i8* %29, align 1
  %31 = load i32, i32* %8, align 4
  %32 = sext i32 %31 to i64
  %33 = getelementptr inbounds [100 x i8], [100 x i8]* %6, i64 0, i64 %32
  store i8 %30, i8* %33, align 1
  %34 = load i32, i32* %8, align 4
  %35 = add nsw i32 %34, 1
  store i32 %35, i32* %8, align 4
  br label %74

36:                                               ; preds = %19, %12
  %37 = load i32, i32* %7, align 4
  %38 = sext i32 %37 to i64
  %39 = getelementptr inbounds [100 x i8], [100 x i8]* %3, i64 0, i64 %38
  %40 = load i8, i8* %39, align 1
  %41 = sext i8 %40 to i32
  %42 = icmp eq i32 %41, 32
  br i1 %42, label %43, label %55

43:                                               ; preds = %36
  %44 = load i32, i32* %8, align 4
  %45 = sext i32 %44 to i64
  %46 = getelementptr inbounds [100 x i8], [100 x i8]* %6, i64 0, i64 %45
  store i8 0, i8* %46, align 1
  %47 = load i32, i32* %9, align 4
  %48 = sext i32 %47 to i64
  %49 = getelementptr inbounds [50 x [20 x i8]], [50 x [20 x i8]]* %2, i64 0, i64 %48
  %50 = getelementptr inbounds [20 x i8], [20 x i8]* %49, i64 0, i64 0
  %51 = getelementptr inbounds [100 x i8], [100 x i8]* %6, i64 0, i64 0
  %52 = call i8* @strcpy(i8* %50, i8* %51) #4
  store i32 0, i32* %8, align 4
  %53 = load i32, i32* %9, align 4
  %54 = add nsw i32 %53, 1
  store i32 %54, i32* %9, align 4
  br label %73

55:                                               ; preds = %36
  %56 = load i32, i32* %7, align 4
  %57 = sext i32 %56 to i64
  %58 = getelementptr inbounds [100 x i8], [100 x i8]* %3, i64 0, i64 %57
  %59 = load i8, i8* %58, align 1
  %60 = sext i8 %59 to i32
  %61 = icmp eq i32 %60, 0
  br i1 %61, label %62, label %72

62:                                               ; preds = %55
  %63 = load i32, i32* %8, align 4
  %64 = sext i32 %63 to i64
  %65 = getelementptr inbounds [100 x i8], [100 x i8]* %6, i64 0, i64 %64
  store i8 0, i8* %65, align 1
  %66 = load i32, i32* %9, align 4
  %67 = sext i32 %66 to i64
  %68 = getelementptr inbounds [50 x [20 x i8]], [50 x [20 x i8]]* %2, i64 0, i64 %67
  %69 = getelementptr inbounds [20 x i8], [20 x i8]* %68, i64 0, i64 0
  %70 = getelementptr inbounds [100 x i8], [100 x i8]* %6, i64 0, i64 0
  %71 = call i8* @strcpy(i8* %69, i8* %70) #4
  br label %77

72:                                               ; preds = %55
  br label %73

73:                                               ; preds = %72, %43
  br label %74

74:                                               ; preds = %73, %26
  %75 = load i32, i32* %7, align 4
  %76 = add nsw i32 %75, 1
  store i32 %76, i32* %7, align 4
  br label %12

77:                                               ; preds = %62
  %78 = getelementptr inbounds [100 x i8], [100 x i8]* %4, i64 0, i64 0
  %79 = call i32 (i8*, ...) bitcast (i32 (...)* @gets to i32 (i8*, ...)*)(i8* %78)
  %80 = getelementptr inbounds [100 x i8], [100 x i8]* %5, i64 0, i64 0
  %81 = call i32 (i8*, ...) bitcast (i32 (...)* @gets to i32 (i8*, ...)*)(i8* %80)
  store i32 0, i32* %7, align 4
  br label %82

82:                                               ; preds = %102, %77
  %83 = load i32, i32* %7, align 4
  %84 = load i32, i32* %9, align 4
  %85 = icmp sle i32 %83, %84
  br i1 %85, label %86, label %105

86:                                               ; preds = %82
  %87 = getelementptr inbounds [100 x i8], [100 x i8]* %4, i64 0, i64 0
  %88 = load i32, i32* %7, align 4
  %89 = sext i32 %88 to i64
  %90 = getelementptr inbounds [50 x [20 x i8]], [50 x [20 x i8]]* %2, i64 0, i64 %89
  %91 = getelementptr inbounds [20 x i8], [20 x i8]* %90, i64 0, i64 0
  %92 = call i32 @strcmp(i8* %87, i8* %91) #5
  %93 = icmp eq i32 %92, 0
  br i1 %93, label %94, label %101

94:                                               ; preds = %86
  %95 = load i32, i32* %7, align 4
  %96 = sext i32 %95 to i64
  %97 = getelementptr inbounds [50 x [20 x i8]], [50 x [20 x i8]]* %2, i64 0, i64 %96
  %98 = getelementptr inbounds [20 x i8], [20 x i8]* %97, i64 0, i64 0
  %99 = getelementptr inbounds [100 x i8], [100 x i8]* %5, i64 0, i64 0
  %100 = call i8* @strcpy(i8* %98, i8* %99) #4
  br label %101

101:                                              ; preds = %94, %86
  br label %102

102:                                              ; preds = %101
  %103 = load i32, i32* %7, align 4
  %104 = add nsw i32 %103, 1
  store i32 %104, i32* %7, align 4
  br label %82

105:                                              ; preds = %82
  store i32 0, i32* %7, align 4
  br label %106

106:                                              ; preds = %116, %105
  %107 = load i32, i32* %7, align 4
  %108 = load i32, i32* %9, align 4
  %109 = icmp slt i32 %107, %108
  br i1 %109, label %110, label %119

110:                                              ; preds = %106
  %111 = load i32, i32* %7, align 4
  %112 = sext i32 %111 to i64
  %113 = getelementptr inbounds [50 x [20 x i8]], [50 x [20 x i8]]* %2, i64 0, i64 %112
  %114 = getelementptr inbounds [20 x i8], [20 x i8]* %113, i64 0, i64 0
  %115 = call i32 (i8*, ...) @printf(i8* getelementptr inbounds ([4 x i8], [4 x i8]* @.str, i64 0, i64 0), i8* %114)
  br label %116

116:                                              ; preds = %110
  %117 = load i32, i32* %7, align 4
  %118 = add nsw i32 %117, 1
  store i32 %118, i32* %7, align 4
  br label %106

119:                                              ; preds = %106
  %120 = load i32, i32* %9, align 4
  %121 = sext i32 %120 to i64
  %122 = getelementptr inbounds [50 x [20 x i8]], [50 x [20 x i8]]* %2, i64 0, i64 %121
  %123 = getelementptr inbounds [20 x i8], [20 x i8]* %122, i64 0, i64 0
  %124 = call i32 (i8*, ...) @printf(i8* getelementptr inbounds ([3 x i8], [3 x i8]* @.str.1, i64 0, i64 0), i8* %123)
  ret i32 0
}

declare dso_local i32 @gets(...) #1

; Function Attrs: nounwind
declare dso_local i8* @strcpy(i8*, i8*) #2

; Function Attrs: nounwind readonly
declare dso_local i32 @strcmp(i8*, i8*) #3

declare dso_local i32 @printf(i8*, ...) #1


!llvm.module.flags = !{!0}
!llvm.ident = !{!1}

!0 = !{i32 1, !"wchar_size", i32 4}
!1 = !{!"clang version 10.0.0-4ubuntu1 "}
